target datalayout = "e-m:e-p270:32:32-p271:32:32-p272:64:64-i64:64-i128:128-f80:128-n8:16:32:64-S128"
target triple = "x86_64-pc-linux-gnu"

%struct._object = type { %union.anon, ptr }
%union.anon = type { i64 }
%struct.anon = type { i32, i32 }

@_destroy_def = internal global { ptr, ptr, i32, [4 x i8], ptr } { ptr @.str.18, ptr @_destroy, i32 8, [4 x i8] zeroinitializer, ptr null }, align 8

; Function Attrs: alwaysinline nounwind uwtable
define internal i32 @_Py_IsImmortal(ptr noundef %0) #4 {
  %2 = alloca ptr, align 8
  store ptr %0, ptr %2, align 8, !tbaa !4
  %3 = load ptr, ptr %2, align 8, !tbaa !4
  %4 = getelementptr inbounds nuw %struct._object, ptr %3, i32 0, i32 0
  %5 = getelementptr inbounds nuw %struct.anon, ptr %4, i32 0, i32 0
  %6 = load i32, ptr %5, align 8, !tbaa !46
  %7 = icmp slt i32 %6, 0
  %8 = zext i1 %7 to i32
  ret i32 %8
}

; Function Attrs: alwaysinline nounwind uwtable
define internal void @Py_DECREF(ptr noundef %0) #4 {
  %2 = alloca ptr, align 8
  store ptr %0, ptr %2, align 8, !tbaa !4
  %3 = load ptr, ptr %2, align 8, !tbaa !4
  %4 = call i32 @_Py_IsImmortal(ptr noundef %3)
  %5 = icmp ne i32 %4, 0
  br i1 %5, label %6, label %7

6:                                                ; preds = %1
  br label %16

7:                                                ; preds = %1
  %8 = load ptr, ptr %2, align 8, !tbaa !4
  %9 = getelementptr inbounds nuw %struct._object, ptr %8, i32 0, i32 0
  %10 = getelementptr inbounds nuw %struct.anon, ptr %9, i32 0, i32 0
  %11 = load i32, ptr %10, align 8, !tbaa !46
  %12 = add i32 %11, -1
  store i32 %12, ptr %10, align 8, !tbaa !46
  %13 = icmp eq i32 %12, 0
  br i1 %13, label %14, label %16

14:                                               ; preds = %7
  %15 = load ptr, ptr %2, align 8, !tbaa !4
  call void @_Py_Dealloc(ptr noundef %15)
  br label %16

16:                                               ; preds = %6, %14, %7
  ret void
}

; Function Attrs: nounwind uwtable
define internal i32 @_add_to_weak_set(ptr noundef %0, ptr noundef %1, ptr noundef %2) #0 {
  %4 = alloca i32, align 4
  %5 = alloca ptr, align 8
  %6 = alloca ptr, align 8
  %7 = alloca ptr, align 8
  %8 = alloca ptr, align 8
  %9 = alloca i32, align 4
  %10 = alloca ptr, align 8
  %11 = alloca ptr, align 8
  %12 = alloca ptr, align 8
  %13 = alloca i32, align 4
  store ptr %0, ptr %5, align 8, !tbaa !9
  store ptr %1, ptr %6, align 8, !tbaa !25
  store ptr %2, ptr %7, align 8, !tbaa !4
  call void @llvm.lifetime.start.p0(i64 8, ptr %8) #5
  %14 = load ptr, ptr %6, align 8, !tbaa !25
  %15 = load ptr, ptr %14, align 8, !tbaa !4
  store ptr %15, ptr %8, align 8, !tbaa !4
  %16 = load ptr, ptr %8, align 8, !tbaa !4
  %17 = icmp eq ptr %16, null
  br i1 %17, label %18, label %21

18:                                               ; preds = %3
  %19 = call ptr @PySet_New(ptr noundef null)
  %20 = load ptr, ptr %6, align 8, !tbaa !25
  store ptr %19, ptr %20, align 8, !tbaa !4
  store ptr %19, ptr %8, align 8, !tbaa !4
  br label %21

21:                                               ; preds = %18, %3
  %22 = load ptr, ptr %8, align 8, !tbaa !4
  %23 = icmp eq ptr %22, null
  br i1 %23, label %24, label %25

24:                                               ; preds = %21
  store i32 -1, ptr %4, align 4
  store i32 1, ptr %9, align 4
  br label %55

25:                                               ; preds = %21
  call void @llvm.lifetime.start.p0(i64 8, ptr %10) #5
  call void @llvm.lifetime.start.p0(i64 8, ptr %11) #5
  call void @llvm.lifetime.start.p0(i64 8, ptr %12) #5
  %26 = load ptr, ptr %8, align 8, !tbaa !4
  %27 = call ptr @PyWeakref_NewRef(ptr noundef %26, ptr noundef null)
  store ptr %27, ptr %11, align 8, !tbaa !4
  %28 = load ptr, ptr %11, align 8, !tbaa !4
  %29 = icmp eq ptr %28, null
  br i1 %29, label %30, label %31

30:                                               ; preds = %25
  store i32 -1, ptr %4, align 4
  store i32 1, ptr %9, align 4
  br label %54

31:                                               ; preds = %25
  %32 = load ptr, ptr %11, align 8, !tbaa !4
  %33 = call ptr @PyCMethod_New(ptr noundef @_destroy_def, ptr noundef %32, ptr noundef null, ptr noundef null)
  store ptr %33, ptr %12, align 8, !tbaa !4
  %34 = load ptr, ptr %12, align 8, !tbaa !4
  %35 = icmp eq ptr %34, null
  br i1 %35, label %36, label %38

36:                                               ; preds = %31
  %37 = load ptr, ptr %11, align 8, !tbaa !4
  call void @Py_DECREF(ptr noundef %37)
  store i32 -1, ptr %4, align 4
  store i32 1, ptr %9, align 4
  br label %54

38:                                               ; preds = %31
  %39 = load ptr, ptr %7, align 8, !tbaa !4
  %40 = load ptr, ptr %12, align 8, !tbaa !4
  %41 = call ptr @PyWeakref_NewRef(ptr noundef %39, ptr noundef %40)
  store ptr %41, ptr %10, align 8, !tbaa !4
  %42 = load ptr, ptr %12, align 8, !tbaa !4
  call void @Py_DECREF(ptr noundef %42)
  %43 = load ptr, ptr %10, align 8, !tbaa !4
  %44 = icmp eq ptr %43, null
  br i1 %44, label %45, label %47

45:                                               ; preds = %38
  %46 = load ptr, ptr %11, align 8, !tbaa !4
  call void @Py_DECREF(ptr noundef %46)
  store i32 -1, ptr %4, align 4
  store i32 1, ptr %9, align 4
  br label %54

47:                                               ; preds = %38
  call void @llvm.lifetime.start.p0(i64 4, ptr %13) #5
  %48 = load ptr, ptr %8, align 8, !tbaa !4
  %49 = load ptr, ptr %10, align 8, !tbaa !4
  %50 = call i32 @PySet_Add(ptr noundef %48, ptr noundef %49)
  store i32 %50, ptr %13, align 4, !tbaa !14
  %51 = load ptr, ptr %11, align 8, !tbaa !4
  call void @Py_DECREF(ptr noundef %51)
  %52 = load ptr, ptr %10, align 8, !tbaa !4
  call void @Py_DECREF(ptr noundef %52)
  %53 = load i32, ptr %13, align 4, !tbaa !14
  store i32 %53, ptr %4, align 4
  store i32 1, ptr %9, align 4
  call void @llvm.lifetime.end.p0(i64 4, ptr %13) #5
  br label %54

54:                                               ; preds = %47, %45, %36, %30
  call void @llvm.lifetime.end.p0(i64 8, ptr %12) #5
  call void @llvm.lifetime.end.p0(i64 8, ptr %11) #5
  call void @llvm.lifetime.end.p0(i64 8, ptr %10) #5
  br label %55

55:                                               ; preds = %54, %24
  call void @llvm.lifetime.end.p0(i64 8, ptr %8) #5
  %56 = load i32, ptr %4, align 4
  ret i32 %56
}