; Function Attrs: nounwind uwtable
define internal fastcc i32 @_add_to_weak_set(ptr noundef nonnull captures(none) %0, ptr noundef %1) unnamed_addr #0 {
  %3 = load ptr, ptr %0, align 8, !tbaa !24
  %4 = icmp eq ptr %3, null
  br i1 %4, label %5, label %.thread

5:                                                ; preds = %2
  %6 = tail call ptr @PySet_New(ptr noundef null) #4
  store ptr %6, ptr %0, align 8, !tbaa !24
  %7 = icmp eq ptr %6, null
  br i1 %7, label %Py_DECREF.exit31, label %.thread

.thread:                                          ; preds = %2, %5
  %.0192 = phi ptr [ %6, %5 ], [ %3, %2 ]
  %8 = tail call ptr @PyWeakref_NewRef(ptr noundef nonnull %.0192, ptr noundef null) #4
  %9 = icmp eq ptr %8, null
  br i1 %9, label %Py_DECREF.exit31, label %10

10:                                               ; preds = %.thread
  %11 = tail call ptr @PyCMethod_New(ptr noundef nonnull @_destroy_def, ptr noundef nonnull %8, ptr noundef null, ptr noundef null) #4
  %12 = icmp eq ptr %11, null
  br i1 %12, label %13, label %18

13:                                               ; preds = %10
  %14 = load i32, ptr %8, align 8, !tbaa !17
  %.not.i30 = icmp sgt i32 %14, -1
  br i1 %.not.i30, label %15, label %Py_DECREF.exit31

15:                                               ; preds = %13
  %16 = add nsw i32 %14, -1
  store i32 %16, ptr %8, align 8, !tbaa !17
  %17 = icmp eq i32 %16, 0
  br i1 %17, label %Py_DECREF.exit31.sink.split, label %Py_DECREF.exit31

18:                                               ; preds = %10
  %19 = tail call ptr @PyWeakref_NewRef(ptr noundef %1, ptr noundef nonnull %11) #4
  %20 = load i32, ptr %11, align 8, !tbaa !17
  %.not.i28 = icmp sgt i32 %20, -1
  br i1 %.not.i28, label %21, label %Py_DECREF.exit29

21:                                               ; preds = %18
  %22 = add nsw i32 %20, -1
  store i32 %22, ptr %11, align 8, !tbaa !17
  %23 = icmp eq i32 %22, 0
  br i1 %23, label %24, label %Py_DECREF.exit29

24:                                               ; preds = %21
  tail call void @_Py_Dealloc(ptr noundef nonnull %11) #4
  br label %Py_DECREF.exit29

Py_DECREF.exit29:                                 ; preds = %18, %21, %24
  %25 = icmp eq ptr %19, null
  br i1 %25, label %26, label %31

26:                                               ; preds = %Py_DECREF.exit29
  %27 = load i32, ptr %8, align 8, !tbaa !17
  %.not.i26 = icmp sgt i32 %27, -1
  br i1 %.not.i26, label %28, label %Py_DECREF.exit31

28:                                               ; preds = %26
  %29 = add nsw i32 %27, -1
  store i32 %29, ptr %8, align 8, !tbaa !17
  %30 = icmp eq i32 %29, 0
  br i1 %30, label %Py_DECREF.exit31.sink.split, label %Py_DECREF.exit31

31:                                               ; preds = %Py_DECREF.exit29
  %32 = tail call i32 @PySet_Add(ptr noundef nonnull %.0192, ptr noundef nonnull %19) #4
  %33 = load i32, ptr %8, align 8, !tbaa !17
  %.not.i24 = icmp sgt i32 %33, -1
  br i1 %.not.i24, label %34, label %Py_DECREF.exit25

34:                                               ; preds = %31
  %35 = add nsw i32 %33, -1
  store i32 %35, ptr %8, align 8, !tbaa !17
  %36 = icmp eq i32 %35, 0
  br i1 %36, label %37, label %Py_DECREF.exit25

37:                                               ; preds = %34
  tail call void @_Py_Dealloc(ptr noundef nonnull %8) #4
  br label %Py_DECREF.exit25

Py_DECREF.exit25:                                 ; preds = %31, %34, %37
  %38 = load i32, ptr %19, align 8, !tbaa !17
  %.not.i = icmp sgt i32 %38, -1
  br i1 %.not.i, label %39, label %Py_DECREF.exit31

39:                                               ; preds = %Py_DECREF.exit25
  %40 = add nsw i32 %38, -1
  store i32 %40, ptr %19, align 8, !tbaa !17
  %41 = icmp eq i32 %40, 0
  br i1 %41, label %Py_DECREF.exit31.sink.split, label %Py_DECREF.exit31

Py_DECREF.exit31.sink.split:                      ; preds = %39, %28, %15
  %.sink = phi ptr [ %8, %15 ], [ %8, %28 ], [ %19, %39 ]
  %.0.ph = phi i32 [ -1, %15 ], [ -1, %28 ], [ %32, %39 ]
  tail call void @_Py_Dealloc(ptr noundef nonnull %.sink) #4
  br label %Py_DECREF.exit31

Py_DECREF.exit31:                                 ; preds = %Py_DECREF.exit31.sink.split, %39, %Py_DECREF.exit25, %28, %26, %15, %13, %.thread, %5
  %.0 = phi i32 [ -1, %5 ], [ -1, %.thread ], [ -1, %13 ], [ -1, %15 ], [ -1, %26 ], [ -1, %28 ], [ %32, %Py_DECREF.exit25 ], [ %32, %39 ], [ %.0.ph, %Py_DECREF.exit31.sink.split ]
  ret i32 %.0
}